target datalayout = "e-m:e-p270:32:32-p271:32:32-p272:64:64-i64:64-i128:128-f80:128-n8:16:32:64-S128"
target triple = "x86_64-pc-linux-gnu"

%"class.llvm::SmallVectorBase" = type { ptr, i32, i32 }
%"class.std::unique_ptr" = type { %"struct.std::__uniq_ptr_data" }
%"struct.std::__uniq_ptr_data" = type { %"class.std::__uniq_ptr_impl" }
%"class.std::__uniq_ptr_impl" = type { %"class.std::tuple" }
%"class.std::tuple" = type { %"struct.std::_Tuple_impl" }
%"struct.std::_Tuple_impl" = type { %"struct.std::_Head_base.1" }
%"struct.std::_Head_base.1" = type { ptr }
%"class.llvm::OptimizationRemarkEmitter" = type { ptr, ptr, %"class.std::unique_ptr" }
%"class.std::optional" = type { %"struct.std::_Optional_base" }
%"struct.std::_Optional_base" = type { %"struct.std::_Optional_payload" }
%"struct.std::_Optional_payload" = type { %"struct.std::_Optional_payload_base.base", [7 x i8] }
%"struct.std::_Optional_payload_base.base" = type <{ %"union.std::_Optional_payload_base<unsigned long>::_Storage", i8 }>
%"union.std::_Optional_payload_base<unsigned long>::_Storage" = type { i64 }
%"class.llvm::DiagnosticInfoIROptimization" = type { %"class.llvm::DiagnosticInfoOptimizationBase", ptr }
%"class.llvm::DiagnosticInfoOptimizationBase" = type { %"class.llvm::DiagnosticInfoWithLocationBase", ptr, %"class.llvm::StringRef", %"class.std::optional", %"class.llvm::SmallVector.57", i8, i32 }
%"class.llvm::DiagnosticInfoWithLocationBase" = type { %"class.llvm::DiagnosticInfo.base", ptr, %"class.llvm::DiagnosticLocation" }
%"class.llvm::DiagnosticInfo.base" = type <{ ptr, i32, i8 }>
%"class.llvm::DiagnosticLocation" = type { ptr, i32, i32 }
%"class.llvm::StringRef" = type { ptr, i64 }
%"class.llvm::SmallVector.57" = type { %"class.llvm::SmallVectorImpl.58", %"struct.llvm::SmallVectorStorage.61" }
%"class.llvm::SmallVectorImpl.58" = type { %"class.llvm::SmallVectorTemplateBase.59" }
%"class.llvm::SmallVectorTemplateBase.59" = type { %"class.llvm::SmallVectorTemplateCommon.60" }
%"class.llvm::SmallVectorTemplateCommon.60" = type { %"class.llvm::SmallVectorBase" }
%"struct.llvm::SmallVectorStorage.61" = type { [320 x i8] }
%"struct.std::_Optional_payload_base" = type <{ %"union.std::_Optional_payload_base<unsigned long>::_Storage", i8, [7 x i8] }>

; Function Attrs: mustprogress nounwind uwtable
define linkonce_odr hidden void @_ZNSt22_Optional_payload_baseImE8_StorageImLb1EEC2Ev(ptr noundef nonnull align 8 dereferenceable(8) %0) unnamed_addr #0 comdat align 2 {
  %2 = alloca ptr, align 8
  store ptr %0, ptr %2, align 8
  ret void
}

; Function Attrs: mustprogress nounwind uwtable
define linkonce_odr hidden void @_ZNSt22_Optional_payload_baseImEC2Ev(ptr noundef nonnull align 8 dereferenceable(9) %0) unnamed_addr #0 comdat align 2 {
  %2 = alloca ptr, align 8
  store ptr %0, ptr %2, align 8
  %3 = load ptr, ptr %2, align 8
  %4 = getelementptr inbounds nuw %"struct.std::_Optional_payload_base", ptr %3, i32 0, i32 0
  call void @_ZNSt22_Optional_payload_baseImE8_StorageImLb1EEC2Ev(ptr noundef nonnull align 8 dereferenceable(8) %4) #9
  %5 = getelementptr inbounds nuw %"struct.std::_Optional_payload_base", ptr %3, i32 0, i32 1
  store i8 0, ptr %5, align 8
  ret void
}

; Function Attrs: mustprogress nounwind uwtable
define linkonce_odr hidden noundef ptr @_ZN4llvm16cast_convert_valINS_10BasicBlockEPKNS_5ValueES4_E4doitES4_(ptr noundef %0) #0 comdat align 2 {
  %2 = alloca ptr, align 8
  store ptr %0, ptr %2, align 8
  %3 = load ptr, ptr %2, align 8
  ret ptr %3
}

; Function Attrs: mustprogress nounwind uwtable
define linkonce_odr hidden void @_ZNSt17_Optional_payloadImLb1ELb1ELb1EEC2Ev(ptr noundef nonnull align 8 dereferenceable(9) %0) unnamed_addr #0 comdat align 2 {
  %2 = alloca ptr, align 8
  store ptr %0, ptr %2, align 8
  %3 = load ptr, ptr %2, align 8
  call void @_ZNSt22_Optional_payload_baseImEC2Ev(ptr noundef nonnull align 8 dereferenceable(9) %3) #9
  ret void
}

; Function Attrs: mustprogress nounwind uwtable
define linkonce_odr hidden noundef ptr @_ZN4llvm8CastInfoINS_10BasicBlockEPKNS_5ValueEvE6doCastERKS4_(ptr noundef nonnull align 8 dereferenceable(8) %0) #0 comdat align 2 {
  %2 = alloca ptr, align 8
  store ptr %0, ptr %2, align 8
  %3 = load ptr, ptr %2, align 8
  %4 = load ptr, ptr %3, align 8
  %5 = call noundef ptr @_ZN4llvm16cast_convert_valINS_10BasicBlockEPKNS_5ValueES4_E4doitES4_(ptr noundef %4)
  ret ptr %5
}

; Function Attrs: mustprogress nounwind uwtable
define linkonce_odr hidden void @_ZNSt14_Optional_baseImLb1ELb1EEC2Ev(ptr noundef nonnull align 8 dereferenceable(16) %0) unnamed_addr #0 comdat align 2 {
  %2 = alloca ptr, align 8
  store ptr %0, ptr %2, align 8
  %3 = load ptr, ptr %2, align 8
  %4 = getelementptr inbounds nuw %"struct.std::_Optional_base", ptr %3, i32 0, i32 0
  call void @_ZNSt17_Optional_payloadImLb1ELb1ELb1EEC2Ev(ptr noundef nonnull align 8 dereferenceable(9) %4) #9
  ret void
}

; Function Attrs: mustprogress nounwind uwtable
define linkonce_odr hidden noundef ptr @_ZN4llvm4castINS_10BasicBlockEKNS_5ValueEEEDcPT0_(ptr noundef %0) #0 comdat {
  %2 = alloca ptr, align 8
  store ptr %0, ptr %2, align 8
  %3 = call noundef ptr @_ZN4llvm8CastInfoINS_10BasicBlockEPKNS_5ValueEvE6doCastERKS4_(ptr noundef nonnull align 8 dereferenceable(8) %2)
  ret ptr %3
}

; Function Attrs: mustprogress nounwind uwtable
define linkonce_odr hidden void @_ZNSt8optionalImEC2ESt9nullopt_t(ptr noundef nonnull align 8 dereferenceable(16) %0) unnamed_addr #0 comdat align 2 {
  %2 = alloca ptr, align 8
  store ptr %0, ptr %2, align 8
  %3 = load ptr, ptr %2, align 8
  call void @_ZNSt14_Optional_baseImLb1ELb1EEC2Ev(ptr noundef nonnull align 8 dereferenceable(16) %3) #9
  ret void
}

; Function Attrs: mustprogress nounwind uwtable
define linkonce_odr hidden void @_ZN4llvm30DiagnosticInfoOptimizationBase10setHotnessESt8optionalImE(ptr noundef nonnull align 8 dereferenceable(424) %0, i64 %1, i8 %2) #0 comdat align 2 {
  %4 = alloca %"class.std::optional", align 8
  %5 = alloca ptr, align 8
  %6 = getelementptr inbounds nuw { i64, i8 }, ptr %4, i32 0, i32 0
  store i64 %1, ptr %6, align 8
  %7 = getelementptr inbounds nuw { i64, i8 }, ptr %4, i32 0, i32 1
  store i8 %2, ptr %7, align 8
  store ptr %0, ptr %5, align 8
  %8 = load ptr, ptr %5, align 8
  %9 = getelementptr inbounds nuw %"class.llvm::DiagnosticInfoOptimizationBase", ptr %8, i32 0, i32 3
  call void @llvm.memcpy.p0.p0.i64(ptr align 8 %9, ptr align 8 %4, i64 16, i1 false)
  ret void
}

; Function Attrs: mustprogress nounwind uwtable
define dso_local { i64, i8 } @_ZN4llvm25OptimizationRemarkEmitter14computeHotnessEPKNS_5ValueE(ptr noundef nonnull align 8 dereferenceable(24) %0, ptr noundef %1) #0 align 2 {
  %3 = alloca %"class.std::optional", align 8
  %4 = alloca ptr, align 8
  %5 = alloca ptr, align 8
  store ptr %0, ptr %4, align 8
  store ptr %1, ptr %5, align 8
  %6 = load ptr, ptr %4, align 8
  %7 = getelementptr inbounds nuw %"class.llvm::OptimizationRemarkEmitter", ptr %6, i32 0, i32 1
  %8 = load ptr, ptr %7, align 8
  %9 = icmp ne ptr %8, null
  br i1 %9, label %11, label %10

10:                                               ; preds = %2
  call void @_ZNSt8optionalImEC2ESt9nullopt_t(ptr noundef nonnull align 8 dereferenceable(16) %3) #9
  br label %23

11:                                               ; preds = %2
  %12 = getelementptr inbounds nuw %"class.llvm::OptimizationRemarkEmitter", ptr %6, i32 0, i32 1
  %13 = load ptr, ptr %12, align 8
  %14 = load ptr, ptr %5, align 8
  %15 = call noundef ptr @_ZN4llvm4castINS_10BasicBlockEKNS_5ValueEEEDcPT0_(ptr noundef %14)
  %16 = call { i64, i8 } @_ZNK4llvm18BlockFrequencyInfo20getBlockProfileCountEPKNS_10BasicBlockEb(ptr noundef nonnull align 8 dereferenceable(8) %13, ptr noundef %15, i1 noundef zeroext false)
  %17 = getelementptr inbounds nuw %"class.std::optional", ptr %3, i32 0, i32 0
  %18 = getelementptr inbounds nuw %"struct.std::_Optional_base", ptr %17, i32 0, i32 0
  %19 = getelementptr inbounds nuw { i64, i8 }, ptr %18, i32 0, i32 0
  %20 = extractvalue { i64, i8 } %16, 0
  store i64 %20, ptr %19, align 8
  %21 = getelementptr inbounds nuw { i64, i8 }, ptr %18, i32 0, i32 1
  %22 = extractvalue { i64, i8 } %16, 1
  store i8 %22, ptr %21, align 8
  br label %23

23:                                               ; preds = %11, %10
  %24 = getelementptr inbounds nuw %"class.std::optional", ptr %3, i32 0, i32 0
  %25 = getelementptr inbounds nuw %"struct.std::_Optional_base", ptr %24, i32 0, i32 0
  %26 = load { i64, i8 }, ptr %25, align 8
  ret { i64, i8 } %26
}

; Function Attrs: mustprogress nounwind uwtable
define linkonce_odr hidden noundef ptr @_ZNK4llvm28DiagnosticInfoIROptimization13getCodeRegionEv(ptr noundef nonnull align 8 dereferenceable(432) %0) #0 comdat align 2 {
  %2 = alloca ptr, align 8
  store ptr %0, ptr %2, align 8
  %3 = load ptr, ptr %2, align 8
  %4 = getelementptr inbounds nuw %"class.llvm::DiagnosticInfoIROptimization", ptr %3, i32 0, i32 1
  %5 = load ptr, ptr %4, align 8
  ret ptr %5
}

; Function Attrs: mustprogress nounwind uwtable
define dso_local void @_ZN4llvm25OptimizationRemarkEmitter14computeHotnessERNS_28DiagnosticInfoIROptimizationE(ptr noundef nonnull align 8 dereferenceable(24) %0, ptr noundef nonnull align 8 dereferenceable(432) %1) #0 align 2 {
  %3 = alloca ptr, align 8
  %4 = alloca ptr, align 8
  %5 = alloca ptr, align 8
  %6 = alloca %"class.std::optional", align 8
  store ptr %0, ptr %3, align 8
  store ptr %1, ptr %4, align 8
  %7 = load ptr, ptr %3, align 8
  %8 = load ptr, ptr %4, align 8
  %9 = call noundef ptr @_ZNK4llvm28DiagnosticInfoIROptimization13getCodeRegionEv(ptr noundef nonnull align 8 dereferenceable(432) %8)
  store ptr %9, ptr %5, align 8
  %10 = load ptr, ptr %5, align 8
  %11 = icmp ne ptr %10, null
  br i1 %11, label %12, label %26

12:                                               ; preds = %2
  %13 = load ptr, ptr %4, align 8
  %14 = load ptr, ptr %5, align 8
  %15 = call { i64, i8 } @_ZN4llvm25OptimizationRemarkEmitter14computeHotnessEPKNS_5ValueE(ptr noundef nonnull align 8 dereferenceable(24) %7, ptr noundef %14)
  %16 = getelementptr inbounds nuw %"class.std::optional", ptr %6, i32 0, i32 0
  %17 = getelementptr inbounds nuw %"struct.std::_Optional_base", ptr %16, i32 0, i32 0
  %18 = getelementptr inbounds nuw { i64, i8 }, ptr %17, i32 0, i32 0
  %19 = extractvalue { i64, i8 } %15, 0
  store i64 %19, ptr %18, align 8
  %20 = getelementptr inbounds nuw { i64, i8 }, ptr %17, i32 0, i32 1
  %21 = extractvalue { i64, i8 } %15, 1
  store i8 %21, ptr %20, align 8
  %22 = getelementptr inbounds nuw { i64, i8 }, ptr %6, i32 0, i32 0
  %23 = load i64, ptr %22, align 8
  %24 = getelementptr inbounds nuw { i64, i8 }, ptr %6, i32 0, i32 1
  %25 = load i8, ptr %24, align 8
  call void @_ZN4llvm30DiagnosticInfoOptimizationBase10setHotnessESt8optionalImE(ptr noundef nonnull align 8 dereferenceable(424) %13, i64 %23, i8 %25)
  br label %26

26:                                               ; preds = %12, %2
  ret void
}