; Function Attrs: mustprogress nounwind uwtable
define dso_local void @_ZN4llvm25OptimizationRemarkEmitter14computeHotnessERNS_28DiagnosticInfoIROptimizationE(ptr nocapture noundef nonnull readonly align 8 dereferenceable(24) %0, ptr nocapture noundef nonnull align 8 dereferenceable(432) %1) local_unnamed_addr #0 align 2 {
  %3 = getelementptr inbounds nuw i8, ptr %1, i64 424
  %4 = load ptr, ptr %3, align 8
  %.not = icmp eq ptr %4, null
  br i1 %.not, label %13, label %5

5:                                                ; preds = %2
  %6 = getelementptr inbounds nuw i8, ptr %0, i64 8
  %7 = load ptr, ptr %6, align 8
  %.not.i = icmp eq ptr %7, null
  br i1 %.not.i, label %_ZN4llvm25OptimizationRemarkEmitter14computeHotnessEPKNS_5ValueE.exit, label %8

8:                                                ; preds = %5
  %9 = tail call { i64, i8 } @_ZNK4llvm18BlockFrequencyInfo20getBlockProfileCountEPKNS_10BasicBlockEb(ptr noundef nonnull align 8 dereferenceable(8) %7, ptr noundef nonnull %4, i1 noundef zeroext false) #12
  %10 = extractvalue { i64, i8 } %9, 0
  %11 = extractvalue { i64, i8 } %9, 1
  br label %_ZN4llvm25OptimizationRemarkEmitter14computeHotnessEPKNS_5ValueE.exit

_ZN4llvm25OptimizationRemarkEmitter14computeHotnessEPKNS_5ValueE.exit: ; preds = %5, %8
  %.sroa.2.0.i = phi i8 [ %11, %8 ], [ 0, %5 ]
  %.sroa.0.0.i = phi i64 [ %10, %8 ], [ undef, %5 ]
  %12 = getelementptr inbounds nuw i8, ptr %1, i64 64
  store i64 %.sroa.0.0.i, ptr %12, align 8
  %.sroa.2.0..sroa_idx.i = getelementptr inbounds i8, ptr %1, i64 72
  store i8 %.sroa.2.0.i, ptr %.sroa.2.0..sroa_idx.i, align 8
  br label %13

13:                                               ; preds = %_ZN4llvm25OptimizationRemarkEmitter14computeHotnessEPKNS_5ValueE.exit, %2
  ret void
}